target datalayout = "e-m:e-p270:32:32-p271:32:32-p272:64:64-i64:64-i128:128-f80:128-n8:16:32:64-S128"
target triple = "x86_64-pc-linux-gnu"

%class.sls_engine = type { ptr, %"class.bv::sls_stats", %class.mpz_manager, %class.powers, %class.mpz, %class.mpz, %class.mpz, %class.bv_util, %class.sls_tracker, %class.sls_evaluator, %class.ptr_vector.25, i32, i32, i32, i32, i32, i32, i32, i32, i32, i32, i32, i32, i32, i32 }
%"class.bv::sls_stats" = type { i32, i32, i32, i32, i32, i32, i32, i32, %class.stopwatch }
%class.stopwatch = type <{ %"class.std::chrono::time_point", %"class.std::chrono::duration", i8, [7 x i8] }>
%"class.std::chrono::time_point" = type { %"class.std::chrono::duration" }
%"class.std::chrono::duration" = type { i64 }
%class.mpz_manager = type { %class.small_object_allocator, %"class.std::recursive_mutex", [4 x i8], i32, %class.mpz, %class.mpz }
%class.small_object_allocator = type { [32 x ptr], [32 x ptr], i64 }
%"class.std::recursive_mutex" = type { %"class.std::__recursive_mutex_base" }
%"class.std::__recursive_mutex_base" = type { %union.pthread_mutex_t }
%union.pthread_mutex_t = type { %struct.__pthread_mutex_s }
%struct.__pthread_mutex_s = type { i32, i32, i32, i32, i32, i16, i16, %struct.__pthread_internal_list }
%struct.__pthread_internal_list = type { ptr, ptr }
%class.powers = type { %class.u_map, ptr }
%class.u_map = type { %class.map }
%class.map = type { %class.table2map }
%class.table2map = type { %class.core_hashtable }
%class.core_hashtable = type <{ ptr, i32, i32, i32, [4 x i8] }>
%class.mpz = type { i32, i8, ptr }
%class.bv_util = type { %class.bv_recognizers, ptr, ptr }
%class.bv_recognizers = type { i32 }
%class.sls_tracker = type { ptr, ptr, ptr, ptr, %class.random_gen, i32, i32, %class.mpz, %class.mpz, %class.mpz, %class.obj_hashtable, %class.obj_map, %class.obj_map.4, %class.obj_map.9, %class.ptr_vector, %class.ptr_vector, %class.obj_map.14, i32, i32, i32, double, i32, double, double, i32, double, i32, [4 x i8], %class.obj_map.19, ptr, i32, [4 x i8], %class.obj_map.19, double, %class.obj_hashtable }
%class.random_gen = type { i32 }
%class.obj_map = type { %class.core_hashtable.2 }
%class.core_hashtable.2 = type <{ ptr, i32, i32, i32, [4 x i8] }>
%class.obj_map.4 = type { %class.core_hashtable.5 }
%class.core_hashtable.5 = type <{ ptr, i32, i32, i32, [4 x i8] }>
%class.obj_map.9 = type { %class.core_hashtable.10 }
%class.core_hashtable.10 = type <{ ptr, i32, i32, i32, [4 x i8] }>
%class.ptr_vector = type { %class.vector }
%class.vector = type { ptr }
%class.obj_map.14 = type { %class.core_hashtable.15 }
%class.core_hashtable.15 = type <{ ptr, i32, i32, i32, [4 x i8] }>
%class.obj_map.19 = type { %class.core_hashtable.20 }
%class.core_hashtable.20 = type <{ ptr, i32, i32, i32, [4 x i8] }>
%class.obj_hashtable = type { %class.core_hashtable.base.1, [4 x i8] }
%class.core_hashtable.base.1 = type <{ ptr, i32, i32, i32 }>
%class.sls_evaluator = type { ptr, ptr, i32, i32, ptr, ptr, %class.mpz, %class.mpz, %class.mpz, ptr, %class.ref_buffer, %class.vector.24, %class.vector.24 }
%class.ref_buffer = type { %class.ref_buffer_core }
%class.ref_buffer_core = type { %class.ref_manager_wrapper, %class.ptr_buffer }
%class.ref_manager_wrapper = type { ptr }
%class.ptr_buffer = type { %class.buffer }
%class.buffer = type { ptr, i32, i32, [128 x i8] }
%class.vector.24 = type { ptr }
%class.ptr_vector.25 = type { %class.vector.26 }
%class.vector.26 = type { ptr }
%"class.model::scoped_model_completion" = type { i8, ptr }
%class.model = type { %class.model_core, %class.ptr_vector.74, %class.obj_map.76, %class.model_evaluator, i8, i8, %class.plugin_manager }
%class.model_core = type { ptr, ptr, i32, [4 x i8], %class.obj_map.64, %class.obj_map.69, %class.ptr_vector, %class.ptr_vector, %class.ptr_vector }
%class.obj_map.64 = type { %class.core_hashtable.65 }
%class.core_hashtable.65 = type <{ ptr, i32, i32, i32, [4 x i8] }>
%class.obj_map.69 = type { %class.core_hashtable.70 }
%class.core_hashtable.70 = type <{ ptr, i32, i32, i32, [4 x i8] }>
%class.ptr_vector.74 = type { %class.vector.75 }
%class.vector.75 = type { ptr }
%class.obj_map.76 = type { %class.core_hashtable.77 }
%class.core_hashtable.77 = type <{ ptr, i32, i32, i32, [4 x i8] }>
%class.model_evaluator = type { ptr }
%class.plugin_manager = type { %class.ptr_vector.81, %class.ptr_vector.81 }
%class.ptr_vector.81 = type { %class.vector.82 }
%class.vector.82 = type { ptr }
%class.ast_manager = type { %class.reslimit, %class.small_object_allocator, %class.family_manager, %class.parray_manager, %class.dependency_manager, %class.parray_manager.41, %class.ptr_vector.44, i32, i8, %class.ast_table, %class.obj_map.47, %class.id_gen, %class.id_gen, ptr, ptr, ptr, ptr, ptr, i32, i8, [3 x i8], %class.u_map.54, ptr, i8, i8, ptr, %class.symbol, %class.obj_map.59, ptr }
%class.reslimit = type { %"struct.std::atomic", i8, i64, i64, %class.svector, %class.ptr_vector.28 }
%"struct.std::atomic" = type { %"struct.std::__atomic_base" }
%"struct.std::__atomic_base" = type { i32 }
%class.svector = type { %class.vector.27 }
%class.vector.27 = type { ptr }
%class.ptr_vector.28 = type { %class.vector.29 }
%class.vector.29 = type { ptr }
%class.family_manager = type { i32, %class.symbol_table, %class.svector.35 }
%class.symbol_table = type { %class.core_hashtable.30, %class.vector.32, %class.svector.33 }
%class.core_hashtable.30 = type <{ ptr, i32, i32, i32, [4 x i8] }>
%class.vector.32 = type { ptr }
%class.svector.33 = type { %class.vector.34 }
%class.vector.34 = type { ptr }
%class.svector.35 = type { %class.vector.36 }
%class.vector.36 = type { ptr }
%class.parray_manager = type { ptr, ptr, %class.ptr_vector.37, %class.ptr_vector.37 }
%class.ptr_vector.37 = type { %class.vector.38 }
%class.vector.38 = type { ptr }
%class.dependency_manager = type { ptr, ptr, %class.ptr_vector.39 }
%class.ptr_vector.39 = type { %class.vector.40 }
%class.vector.40 = type { ptr }
%class.parray_manager.41 = type { ptr, ptr, %class.ptr_vector.42, %class.ptr_vector.42 }
%class.ptr_vector.42 = type { %class.vector.43 }
%class.vector.43 = type { ptr }
%class.ptr_vector.44 = type { %class.vector.45 }
%class.vector.45 = type { ptr }
%class.ast_table = type { %class.chashtable }
%class.chashtable = type { ptr, i32, i32, i32, i32, i32, i32, i32, ptr, ptr, ptr }
%class.obj_map.47 = type { %class.core_hashtable.48 }
%class.core_hashtable.48 = type <{ ptr, i32, i32, i32, [4 x i8] }>
%class.id_gen = type { i32, %class.svector.52 }
%class.svector.52 = type { %class.vector.53 }
%class.vector.53 = type { ptr }
%class.u_map.54 = type { %class.map.55 }
%class.map.55 = type { %class.table2map.56 }
%class.table2map.56 = type { %class.core_hashtable.57 }
%class.core_hashtable.57 = type <{ ptr, i32, i32, i32, [4 x i8] }>
%class.symbol = type { ptr }
%class.obj_map.59 = type { %class.core_hashtable.60 }
%class.core_hashtable.60 = type <{ ptr, i32, i32, i32, [4 x i8] }>

; Function Attrs: mustprogress nounwind uwtable
define linkonce_odr hidden noundef nonnull align 8 dereferenceable(40) ptr @_ZN11ast_manager5limitEv(ptr noundef nonnull align 8 dereferenceable(976) %0) #5 comdat align 2 {
  %2 = alloca ptr, align 8
  store ptr %0, ptr %2, align 8, !tbaa !8
  %3 = load ptr, ptr %2, align 8
  %4 = getelementptr inbounds nuw %class.ast_manager, ptr %3, i32 0, i32 0
  ret ptr %4
}

; Function Attrs: mustprogress nounwind uwtable
define linkonce_odr hidden noundef i32 @_ZNK6vectorIP4exprLb0EjE4sizeEv(ptr noundef nonnull align 8 dereferenceable(8) %0) #5 comdat align 2 {
  %2 = alloca i32, align 4
  %3 = alloca ptr, align 8
  store ptr %0, ptr %3, align 8, !tbaa !127
  %4 = load ptr, ptr %3, align 8
  %5 = getelementptr inbounds nuw %class.vector.26, ptr %4, i32 0, i32 0
  %6 = load ptr, ptr %5, align 8, !tbaa !157
  %7 = icmp eq ptr %6, null
  br i1 %7, label %8, label %9

8:                                                ; preds = %1
  store i32 0, ptr %2, align 4
  br label %14

9:                                                ; preds = %1
  %10 = getelementptr inbounds nuw %class.vector.26, ptr %4, i32 0, i32 0
  %11 = load ptr, ptr %10, align 8, !tbaa !157
  %12 = getelementptr inbounds i32, ptr %11, i64 -1
  %13 = load i32, ptr %12, align 4, !tbaa !33
  store i32 %13, ptr %2, align 4
  br label %14

14:                                               ; preds = %9, %8
  %15 = load i32, ptr %2, align 4
  ret i32 %15
}

; Function Attrs: mustprogress uwtable
define linkonce_odr hidden void @_ZN5model20set_model_completionEb(ptr noundef nonnull align 8 dereferenceable(160) %0, i1 noundef zeroext %1) #4 comdat align 2 {
  %3 = alloca ptr, align 8
  %4 = alloca i8, align 1
  store ptr %0, ptr %3, align 8, !tbaa !144
  %5 = zext i1 %1 to i8
  store i8 %5, ptr %4, align 1, !tbaa !152
  %6 = load ptr, ptr %3, align 8
  %7 = getelementptr inbounds nuw %class.model, ptr %6, i32 0, i32 3
  %8 = load i8, ptr %4, align 1, !tbaa !152, !range !155, !noundef !156
  %9 = trunc i8 %8 to i1
  call void @_ZN15model_evaluator20set_model_completionEb(ptr noundef nonnull align 8 dereferenceable(8) %7, i1 noundef zeroext %9)
  ret void
}

; Function Attrs: mustprogress uwtable
define linkonce_odr hidden noundef zeroext i1 @_ZN11ast_manager3incEv(ptr noundef nonnull align 8 dereferenceable(976) %0) #4 comdat align 2 {
  %2 = alloca ptr, align 8
  store ptr %0, ptr %2, align 8, !tbaa !8
  %3 = load ptr, ptr %2, align 8
  %4 = call noundef nonnull align 8 dereferenceable(40) ptr @_ZN11ast_manager5limitEv(ptr noundef nonnull align 8 dereferenceable(976) %3)
  %5 = call noundef zeroext i1 @_ZN8reslimit3incEv(ptr noundef nonnull align 8 dereferenceable(40) %4)
  ret i1 %5
}

; Function Attrs: mustprogress nounwind uwtable
define linkonce_odr hidden noundef ptr @_ZN6vectorIP4exprLb0EjE3endEv(ptr noundef nonnull align 8 dereferenceable(8) %0) #5 comdat align 2 {
  %2 = alloca ptr, align 8
  store ptr %0, ptr %2, align 8, !tbaa !127
  %3 = load ptr, ptr %2, align 8
  %4 = getelementptr inbounds nuw %class.vector.26, ptr %3, i32 0, i32 0
  %5 = load ptr, ptr %4, align 8, !tbaa !157
  %6 = call noundef i32 @_ZNK6vectorIP4exprLb0EjE4sizeEv(ptr noundef nonnull align 8 dereferenceable(8) %3)
  %7 = zext i32 %6 to i64
  %8 = getelementptr inbounds nuw ptr, ptr %5, i64 %7
  ret ptr %8
}

; Function Attrs: mustprogress nounwind uwtable
define linkonce_odr hidden noundef ptr @_ZN6vectorIP4exprLb0EjE5beginEv(ptr noundef nonnull align 8 dereferenceable(8) %0) #5 comdat align 2 {
  %2 = alloca ptr, align 8
  store ptr %0, ptr %2, align 8, !tbaa !127
  %3 = load ptr, ptr %2, align 8
  %4 = getelementptr inbounds nuw %class.vector.26, ptr %3, i32 0, i32 0
  %5 = load ptr, ptr %4, align 8, !tbaa !157
  ret ptr %5
}

; Function Attrs: mustprogress uwtable
define linkonce_odr hidden void @_ZN5model23scoped_model_completionC2ERS_b(ptr noundef nonnull align 8 dereferenceable(16) %0, ptr noundef nonnull align 8 dereferenceable(160) %1, i1 noundef zeroext %2) unnamed_addr #4 comdat align 2 {
  %4 = alloca ptr, align 8
  %5 = alloca ptr, align 8
  %6 = alloca i8, align 1
  store ptr %0, ptr %4, align 8, !tbaa !150
  store ptr %1, ptr %5, align 8, !tbaa !144
  %7 = zext i1 %2 to i8
  store i8 %7, ptr %6, align 1, !tbaa !152
  %8 = load ptr, ptr %4, align 8
  %9 = getelementptr inbounds nuw %"class.model::scoped_model_completion", ptr %8, i32 0, i32 0
  %10 = load ptr, ptr %5, align 8, !tbaa !144
  %11 = getelementptr inbounds nuw %class.model, ptr %10, i32 0, i32 3
  %12 = call noundef zeroext i1 @_ZNK15model_evaluator20get_model_completionEv(ptr noundef nonnull align 8 dereferenceable(8) %11)
  %13 = zext i1 %12 to i8
  store i8 %13, ptr %9, align 8, !tbaa !153
  %14 = getelementptr inbounds nuw %"class.model::scoped_model_completion", ptr %8, i32 0, i32 1
  %15 = load ptr, ptr %5, align 8, !tbaa !144
  store ptr %15, ptr %14, align 8, !tbaa !144
  %16 = load ptr, ptr %5, align 8, !tbaa !144
  %17 = load i8, ptr %6, align 1, !tbaa !152, !range !155, !noundef !156
  %18 = trunc i8 %17 to i1
  call void @_ZN5model20set_model_completionEb(ptr noundef nonnull align 8 dereferenceable(160) %16, i1 noundef zeroext %18)
  ret void
}

; Function Attrs: mustprogress uwtable
define hidden noundef zeroext i1 @_ZN10sls_engine9full_evalER5model(ptr noundef nonnull align 8 dereferenceable(1496) %0, ptr noundef nonnull align 8 dereferenceable(160) %1) #4 align 2 personality ptr @__gxx_personality_v0 {
  %3 = alloca i1, align 1
  %4 = alloca ptr, align 8
  %5 = alloca ptr, align 8
  %6 = alloca %"class.model::scoped_model_completion", align 8
  %7 = alloca ptr, align 8
  %8 = alloca ptr, align 8
  %9 = alloca ptr, align 8
  %10 = alloca i32, align 4
  %11 = alloca ptr, align 8
  %12 = alloca i32, align 4
  %13 = alloca ptr, align 8
  store ptr %0, ptr %4, align 8, !tbaa !3
  store ptr %1, ptr %5, align 8, !tbaa !144
  %14 = load ptr, ptr %4, align 8
  call void @llvm.lifetime.start.p0(i64 16, ptr %6) #3
  %15 = load ptr, ptr %5, align 8, !tbaa !144
  call void @_ZN5model23scoped_model_completionC2ERS_b(ptr noundef nonnull align 8 dereferenceable(16) %6, ptr noundef nonnull align 8 dereferenceable(160) %15, i1 noundef zeroext true)
  call void @llvm.lifetime.start.p0(i64 8, ptr %7) #3
  %16 = getelementptr inbounds nuw %class.sls_engine, ptr %14, i32 0, i32 10
  store ptr %16, ptr %7, align 8, !tbaa !95
  call void @llvm.lifetime.start.p0(i64 8, ptr %8) #3
  %17 = load ptr, ptr %7, align 8, !tbaa !95
  %18 = invoke noundef ptr @_ZN6vectorIP4exprLb0EjE5beginEv(ptr noundef nonnull align 8 dereferenceable(8) %17)
          to label %19 unwind label %28

19:                                               ; preds = %2
  store ptr %18, ptr %8, align 8, !tbaa !146
  call void @llvm.lifetime.start.p0(i64 8, ptr %11) #3
  %20 = load ptr, ptr %7, align 8, !tbaa !95
  %21 = invoke noundef ptr @_ZN6vectorIP4exprLb0EjE3endEv(ptr noundef nonnull align 8 dereferenceable(8) %20)
          to label %22 unwind label %32

22:                                               ; preds = %19
  store ptr %21, ptr %11, align 8, !tbaa !146
  br label %23

23:                                               ; preds = %58, %22
  %24 = load ptr, ptr %8, align 8, !tbaa !146
  %25 = load ptr, ptr %11, align 8, !tbaa !146
  %26 = icmp ne ptr %24, %25
  br i1 %26, label %36, label %27

27:                                               ; preds = %23
  store i32 2, ptr %12, align 4
  br label %61

28:                                               ; preds = %2
  %29 = landingpad { ptr, i32 }
          cleanup
  %30 = extractvalue { ptr, i32 } %29, 0
  store ptr %30, ptr %9, align 8
  %31 = extractvalue { ptr, i32 } %29, 1
  store i32 %31, ptr %10, align 4
  br label %64

32:                                               ; preds = %19
  %33 = landingpad { ptr, i32 }
          cleanup
  %34 = extractvalue { ptr, i32 } %33, 0
  store ptr %34, ptr %9, align 8
  %35 = extractvalue { ptr, i32 } %33, 1
  store i32 %35, ptr %10, align 4
  br label %63

36:                                               ; preds = %23
  call void @llvm.lifetime.start.p0(i64 8, ptr %13) #3
  %37 = load ptr, ptr %8, align 8, !tbaa !146
  %38 = load ptr, ptr %37, align 8, !tbaa !147
  store ptr %38, ptr %13, align 8, !tbaa !147
  %39 = getelementptr inbounds nuw %class.sls_engine, ptr %14, i32 0, i32 0
  %40 = load ptr, ptr %39, align 8, !tbaa !149
  %41 = invoke noundef zeroext i1 @_ZN11ast_manager3incEv(ptr noundef nonnull align 8 dereferenceable(976) %40)
          to label %42 unwind label %44

42:                                               ; preds = %36
  br i1 %41, label %48, label %43

43:                                               ; preds = %42
  store i1 false, ptr %3, align 1
  store i32 1, ptr %12, align 4
  br label %55

44:                                               ; preds = %48, %36
  %45 = landingpad { ptr, i32 }
          cleanup
  %46 = extractvalue { ptr, i32 } %45, 0
  store ptr %46, ptr %9, align 8
  %47 = extractvalue { ptr, i32 } %45, 1
  store i32 %47, ptr %10, align 4
  call void @llvm.lifetime.end.p0(i64 8, ptr %13) #3
  br label %63

48:                                               ; preds = %42
  %49 = load ptr, ptr %5, align 8, !tbaa !144
  %50 = load ptr, ptr %13, align 8, !tbaa !147
  %51 = invoke noundef zeroext i1 @_ZN5model7is_trueEP4expr(ptr noundef nonnull align 8 dereferenceable(160) %49, ptr noundef %50)
          to label %52 unwind label %44

52:                                               ; preds = %48
  br i1 %51, label %54, label %53

53:                                               ; preds = %52
  store i1 false, ptr %3, align 1
  store i32 1, ptr %12, align 4
  br label %55

54:                                               ; preds = %52
  store i32 0, ptr %12, align 4
  br label %55

55:                                               ; preds = %54, %53, %43
  call void @llvm.lifetime.end.p0(i64 8, ptr %13) #3
  %56 = load i32, ptr %12, align 4
  switch i32 %56, label %61 [
    i32 0, label %57
  ]

57:                                               ; preds = %55
  br label %58

58:                                               ; preds = %57
  %59 = load ptr, ptr %8, align 8, !tbaa !146
  %60 = getelementptr inbounds nuw ptr, ptr %59, i32 1
  store ptr %60, ptr %8, align 8, !tbaa !146
  br label %23

61:                                               ; preds = %55, %27
  call void @llvm.lifetime.end.p0(i64 8, ptr %11) #3
  call void @llvm.lifetime.end.p0(i64 8, ptr %8) #3
  call void @llvm.lifetime.end.p0(i64 8, ptr %7) #3
  %62 = load i32, ptr %12, align 4
  switch i32 %62, label %66 [
    i32 2, label %65
  ]

63:                                               ; preds = %44, %32
  call void @llvm.lifetime.end.p0(i64 8, ptr %11) #3
  br label %64

64:                                               ; preds = %63, %28
  call void @llvm.lifetime.end.p0(i64 8, ptr %8) #3
  call void @llvm.lifetime.end.p0(i64 8, ptr %7) #3
  call void @_ZN5model23scoped_model_completionD2Ev(ptr noundef nonnull align 8 dereferenceable(16) %6) #3
  call void @llvm.lifetime.end.p0(i64 16, ptr %6) #3
  br label %68

65:                                               ; preds = %61
  store i1 true, ptr %3, align 1
  store i32 1, ptr %12, align 4
  br label %66

66:                                               ; preds = %65, %61
  call void @_ZN5model23scoped_model_completionD2Ev(ptr noundef nonnull align 8 dereferenceable(16) %6) #3
  call void @llvm.lifetime.end.p0(i64 16, ptr %6) #3
  %67 = load i1, ptr %3, align 1
  ret i1 %67

68:                                               ; preds = %64
  %69 = load ptr, ptr %9, align 8
  %70 = load i32, ptr %10, align 4
  %71 = insertvalue { ptr, i32 } poison, ptr %69, 0
  %72 = insertvalue { ptr, i32 } %71, i32 %70, 1
  resume { ptr, i32 } %72
}