; Function Attrs: mustprogress uwtable
define hidden noundef zeroext i1 @_ZN10sls_engine9full_evalER5model(ptr noundef nonnull readonly align 8 captures(none) dereferenceable(1496) %0, ptr noundef nonnull align 8 dereferenceable(160) %1) local_unnamed_addr #3 align 2 personality ptr @__gxx_personality_v0 {
  %3 = alloca %"class.model::scoped_model_completion", align 8
  call void @llvm.lifetime.start.p0(i64 16, ptr nonnull %3) #25
  %4 = getelementptr inbounds nuw i8, ptr %1, i64 128
  %5 = tail call noundef zeroext i1 @_ZNK15model_evaluator20get_model_completionEv(ptr noundef nonnull align 8 dereferenceable(8) %4)
  %6 = zext i1 %5 to i8
  store i8 %6, ptr %3, align 8, !tbaa !216
  %7 = getelementptr inbounds nuw i8, ptr %3, i64 8
  store ptr %1, ptr %7, align 8, !tbaa !219
  tail call void @_ZN15model_evaluator20set_model_completionEb(ptr noundef nonnull align 8 dereferenceable(8) %4, i1 noundef zeroext true)
  %8 = getelementptr inbounds nuw i8, ptr %0, i64 1432
  %9 = load ptr, ptr %8, align 8, !tbaa !77
  %10 = icmp eq ptr %9, null
  br i1 %10, label %.critedge, label %_ZN6vectorIP4exprLb0EjE3endEv.exit

_ZN6vectorIP4exprLb0EjE3endEv.exit:               ; preds = %2
  %11 = getelementptr inbounds i8, ptr %9, i64 -4
  %12 = load i32, ptr %11, align 4, !tbaa !200
  %13 = zext i32 %12 to i64
  %14 = getelementptr inbounds nuw ptr, ptr %9, i64 %13
  %.not20 = icmp eq i32 %12, 0
  br i1 %.not20, label %.critedge, label %.lr.ph

15:                                               ; preds = %24
  %16 = getelementptr inbounds nuw i8, ptr %.01721, i64 8
  %.not = icmp eq ptr %16, %14
  br i1 %.not, label %.critedge, label %.lr.ph

.lr.ph:                                           ; preds = %_ZN6vectorIP4exprLb0EjE3endEv.exit, %15
  %.01721 = phi ptr [ %16, %15 ], [ %9, %_ZN6vectorIP4exprLb0EjE3endEv.exit ]
  %17 = load ptr, ptr %.01721, align 8, !tbaa !202
  %18 = load ptr, ptr %0, align 8, !tbaa !220
  %19 = invoke noundef zeroext i1 @_ZN8reslimit3incEv(ptr noundef nonnull align 8 dereferenceable(976) %18)
          to label %_ZN11ast_manager3incEv.exit unwind label %20

_ZN11ast_manager3incEv.exit:                      ; preds = %.lr.ph
  br i1 %19, label %22, label %.critedge

20:                                               ; preds = %.lr.ph, %22
  %21 = landingpad { ptr, i32 }
          cleanup
  call void @_ZN5model23scoped_model_completionD2Ev(ptr noundef nonnull align 8 dereferenceable(16) %3) #25
  call void @llvm.lifetime.end.p0(i64 16, ptr nonnull %3) #25
  resume { ptr, i32 } %21

22:                                               ; preds = %_ZN11ast_manager3incEv.exit
  %23 = invoke noundef zeroext i1 @_ZN5model7is_trueEP4expr(ptr noundef nonnull align 8 dereferenceable(160) %1, ptr noundef %17)
          to label %24 unwind label %20

24:                                               ; preds = %22
  br i1 %23, label %15, label %.critedge

.critedge:                                        ; preds = %_ZN11ast_manager3incEv.exit, %24, %15, %2, %_ZN6vectorIP4exprLb0EjE3endEv.exit
  %.not.lcssa = phi i1 [ true, %_ZN6vectorIP4exprLb0EjE3endEv.exit ], [ true, %2 ], [ true, %15 ], [ false, %24 ], [ false, %_ZN11ast_manager3incEv.exit ]
  invoke void @_ZN15model_evaluator20set_model_completionEb(ptr noundef nonnull align 8 dereferenceable(8) %4, i1 noundef zeroext %5)
          to label %_ZN5model23scoped_model_completionD2Ev.exit unwind label %25

25:                                               ; preds = %.critedge
  %26 = landingpad { ptr, i32 }
          catch ptr null
  %27 = extractvalue { ptr, i32 } %26, 0
  tail call void @__clang_call_terminate(ptr %27) #26
  unreachable

_ZN5model23scoped_model_completionD2Ev.exit:      ; preds = %.critedge
  call void @llvm.lifetime.end.p0(i64 16, ptr nonnull %3) #25
  ret i1 %.not.lcssa
}